target datalayout = "e-m:e-p270:32:32-p271:32:32-p272:64:64-i64:64-i128:128-f80:128-n8:16:32:64-S128"
target triple = "x86_64-pc-linux-gnu"

%struct.anon = type { ptr, ptr }
%struct.client_request = type { i32, ptr, i8, i8, i32, ptr, ptr, i32, i32 }

@plugin_type = external constant [0 x i8], align 1
@.str.9 = private unnamed_addr constant [41 x i8] c"%s: %s: mpi/pmi2: got client request: %s\00", align 1
@__func__._handle_pmi1_cmd_buf = private unnamed_addr constant [21 x i8] c"_handle_pmi1_cmd_buf\00", align 1
@.str.10 = private unnamed_addr constant [33 x i8] c"mpi/pmi2: invalid client request\00", align 1
@.str.11 = private unnamed_addr constant [46 x i8] c"mpi/pmi2: invalid pmi1 command received: '%s'\00", align 1

; Function Attrs: nounwind uwtable
define internal i32 @_handle_pmi1_cmd_buf(i32 noundef %0, i32 noundef %1, i32 noundef %2, ptr noundef %3) #0 {
  %5 = alloca i32, align 4
  %6 = alloca i32, align 4
  %7 = alloca i32, align 4
  %8 = alloca i32, align 4
  %9 = alloca ptr, align 8
  %10 = alloca ptr, align 8
  %11 = alloca i32, align 4
  %12 = alloca i32, align 4
  %13 = alloca i32, align 4
  store i32 %0, ptr %6, align 4
  store i32 %1, ptr %7, align 4
  store i32 %2, ptr %8, align 4
  store ptr %3, ptr %9, align 8
  call void @llvm.lifetime.start.p0(i64 8, ptr %10) #6
  store ptr null, ptr %10, align 8
  call void @llvm.lifetime.start.p0(i64 4, ptr %11) #6
  store i32 0, ptr %11, align 4
  call void @llvm.lifetime.start.p0(i64 4, ptr %12) #6
  br label %14

14:                                               ; preds = %4
  br label %15

15:                                               ; preds = %14
  %16 = call i32 @slurm_get_log_level()
  %17 = icmp sge i32 %16, 7
  br i1 %17, label %18, label %20

18:                                               ; preds = %15
  %19 = load ptr, ptr %9, align 8
  call void (i32, ptr, ...) @slurm_log_var(i32 noundef 7, ptr noundef @.str.9, ptr noundef @plugin_type, ptr noundef @__func__._handle_pmi1_cmd_buf, ptr noundef %19)
  br label %20

20:                                               ; preds = %18, %15
  br label %21

21:                                               ; preds = %20
  br label %22

22:                                               ; preds = %21
  br label %23

23:                                               ; preds = %22
  br label %24

24:                                               ; preds = %23
  %25 = load i32, ptr %8, align 4
  %26 = load ptr, ptr %9, align 8
  %27 = call ptr @client_req_init(i32 noundef %25, ptr noundef %26)
  store ptr %27, ptr %10, align 8
  %28 = load ptr, ptr %10, align 8
  %29 = icmp eq ptr %28, null
  br i1 %29, label %30, label %32

30:                                               ; preds = %24
  %31 = call i32 (ptr, ...) @slurm_error(ptr noundef @.str.10)
  store i32 -1, ptr %5, align 4
  store i32 1, ptr %13, align 4
  br label %80

32:                                               ; preds = %24
  store i32 0, ptr %11, align 4
  br label %33

33:                                               ; preds = %52, %32
  %34 = load i32, ptr %11, align 4
  %35 = sext i32 %34 to i64
  %36 = getelementptr inbounds [17 x %struct.anon], ptr @pmi1_cmd_handlers, i64 0, i64 %35
  %37 = getelementptr inbounds nuw %struct.anon, ptr %36, i32 0, i32 0
  %38 = load ptr, ptr %37, align 16
  %39 = icmp ne ptr %38, null
  br i1 %39, label %40, label %55

40:                                               ; preds = %33
  %41 = load ptr, ptr %10, align 8
  %42 = getelementptr inbounds nuw %struct.client_request, ptr %41, i32 0, i32 5
  %43 = load ptr, ptr %42, align 8
  %44 = load i32, ptr %11, align 4
  %45 = sext i32 %44 to i64
  %46 = getelementptr inbounds [17 x %struct.anon], ptr @pmi1_cmd_handlers, i64 0, i64 %45
  %47 = getelementptr inbounds nuw %struct.anon, ptr %46, i32 0, i32 0
  %48 = load ptr, ptr %47, align 16
  %49 = call i32 @slurm_xstrcmp(ptr noundef %43, ptr noundef %48)
  %50 = icmp ne i32 %49, 0
  br i1 %50, label %52, label %51

51:                                               ; preds = %40
  br label %55

52:                                               ; preds = %40
  %53 = load i32, ptr %11, align 4
  %54 = add nsw i32 %53, 1
  store i32 %54, ptr %11, align 4
  br label %33, !llvm.loop !14

55:                                               ; preds = %51, %33
  %56 = load i32, ptr %11, align 4
  %57 = sext i32 %56 to i64
  %58 = getelementptr inbounds [17 x %struct.anon], ptr @pmi1_cmd_handlers, i64 0, i64 %57
  %59 = getelementptr inbounds nuw %struct.anon, ptr %58, i32 0, i32 0
  %60 = load ptr, ptr %59, align 16
  %61 = icmp eq ptr %60, null
  br i1 %61, label %62, label %67

62:                                               ; preds = %55
  %63 = load ptr, ptr %10, align 8
  %64 = getelementptr inbounds nuw %struct.client_request, ptr %63, i32 0, i32 5
  %65 = load ptr, ptr %64, align 8
  %66 = call i32 (ptr, ...) @slurm_error(ptr noundef @.str.11, ptr noundef %65)
  store i32 -1, ptr %12, align 4
  br label %77

67:                                               ; preds = %55
  %68 = load i32, ptr %11, align 4
  %69 = sext i32 %68 to i64
  %70 = getelementptr inbounds [17 x %struct.anon], ptr @pmi1_cmd_handlers, i64 0, i64 %69
  %71 = getelementptr inbounds nuw %struct.anon, ptr %70, i32 0, i32 1
  %72 = load ptr, ptr %71, align 8
  %73 = load i32, ptr %6, align 4
  %74 = load i32, ptr %7, align 4
  %75 = load ptr, ptr %10, align 8
  %76 = call i32 %72(i32 noundef %73, i32 noundef %74, ptr noundef %75)
  store i32 %76, ptr %12, align 4
  br label %77

77:                                               ; preds = %67, %62
  %78 = load ptr, ptr %10, align 8
  call void @client_req_free(ptr noundef %78)
  %79 = load i32, ptr %12, align 4
  store i32 %79, ptr %5, align 4
  store i32 1, ptr %13, align 4
  br label %80

80:                                               ; preds = %77, %30
  call void @llvm.lifetime.end.p0(i64 4, ptr %12) #6
  call void @llvm.lifetime.end.p0(i64 4, ptr %11) #6
  call void @llvm.lifetime.end.p0(i64 8, ptr %10) #6
  %81 = load i32, ptr %5, align 4
  ret i32 %81
}