; Function Attrs: nounwind uwtable
define internal fastcc i32 @_handle_pmi1_cmd_buf(i32 noundef %0, i32 noundef %1, i32 noundef %2, ptr noundef %3) unnamed_addr #0 {
  %5 = tail call i32 @slurm_get_log_level() #8
  %6 = icmp sgt i32 %5, 6
  br i1 %6, label %7, label %8

7:                                                ; preds = %4
  tail call void (i32, ptr, ...) @slurm_log_var(i32 noundef 7, ptr noundef nonnull @.str.9, ptr noundef nonnull @plugin_type, ptr noundef nonnull @__func__._handle_pmi1_cmd_buf, ptr noundef %3) #8
  br label %8

8:                                                ; preds = %7, %4
  %9 = tail call ptr @client_req_init(i32 noundef %2, ptr noundef %3) #8
  %10 = icmp eq ptr %9, null
  br i1 %10, label %14, label %.preheader

.preheader:                                       ; preds = %8
  %11 = getelementptr inbounds nuw i8, ptr %9, i64 24
  %12 = load ptr, ptr %11, align 8
  %13 = tail call i32 @slurm_xstrcmp(ptr noundef %12, ptr noundef nonnull @.str.12) #8
  %.not2027 = icmp eq i32 %13, 0
  br i1 %.not2027, label %._crit_edge, label %.lr.ph

14:                                               ; preds = %8
  %15 = tail call i32 (ptr, ...) @slurm_error(ptr noundef nonnull @.str.10) #8
  br label %28

.lr.ph:                                           ; preds = %.preheader, %16
  %indvars.iv28 = phi i64 [ %indvars.iv.next, %16 ], [ 0, %.preheader ]
  %indvars.iv.next = add nuw nsw i64 %indvars.iv28, 1
  %exitcond = icmp eq i64 %indvars.iv.next, 16
  br i1 %exitcond, label %21, label %16, !llvm.loop !14

16:                                               ; preds = %.lr.ph
  %17 = getelementptr inbounds nuw [17 x %struct.anon], ptr @pmi1_cmd_handlers, i64 0, i64 %indvars.iv.next
  %18 = load ptr, ptr %17, align 16
  %19 = load ptr, ptr %11, align 8
  %20 = tail call i32 @slurm_xstrcmp(ptr noundef %19, ptr noundef nonnull %18) #8
  %.not20 = icmp eq i32 %20, 0
  br i1 %.not20, label %._crit_edge, label %.lr.ph, !llvm.loop !14

21:                                               ; preds = %.lr.ph
  %22 = load ptr, ptr %11, align 8
  %23 = tail call i32 (ptr, ...) @slurm_error(ptr noundef nonnull @.str.11, ptr noundef %22) #8
  br label %27

._crit_edge:                                      ; preds = %16, %.preheader
  %.lcssa = phi ptr [ @pmi1_cmd_handlers, %.preheader ], [ %17, %16 ]
  %24 = getelementptr inbounds nuw i8, ptr %.lcssa, i64 8
  %25 = load ptr, ptr %24, align 8
  %26 = tail call i32 %25(i32 noundef %0, i32 noundef %1, ptr noundef nonnull %9) #8
  br label %27

27:                                               ; preds = %._crit_edge, %21
  %.0 = phi i32 [ -1, %21 ], [ %26, %._crit_edge ]
  tail call void @client_req_free(ptr noundef nonnull %9) #8
  br label %28

28:                                               ; preds = %27, %14
  %.017 = phi i32 [ -1, %14 ], [ %.0, %27 ]
  ret i32 %.017
}